target datalayout = "e-m:e-p270:32:32-p271:32:32-p272:64:64-i64:64-i128:128-f80:128-n8:16:32:64-S128"
target triple = "x86_64-pc-linux-gnu"

%struct.ForEachState = type { ptr, i32 }
%struct.List = type { i32, i32, i32, ptr, [0 x %union.ListCell] }
%union.ListCell = type { ptr }
%struct.FormData_pg_class = type { i32, %struct.nameData, i32, i32, i32, i32, i32, i32, i32, i32, float, i32, i32, i8, i8, i8, i8, i16, i16, i8, i8, i8, i8, i8, i8, i8, i8, i32, i32, i32 }
%struct.nameData = type { [64 x i8] }
%struct.HeapTupleData = type { i32, %struct.ItemPointerData, i32, ptr }
%struct.ItemPointerData = type { %struct.BlockIdData, i16 }
%struct.BlockIdData = type { i16, i16 }
%struct.HeapTupleHeaderData = type { %union.anon, %struct.ItemPointerData, i16, i16, i8, [0 x i8] }
%union.anon = type { %struct.HeapTupleFields }
%struct.HeapTupleFields = type { i32, i32, %union.anon.0 }
%union.anon.0 = type { i32 }

@.str.1 = private unnamed_addr constant [12 x i8] c"partition.c\00", align 1
@.str.3 = private unnamed_addr constant [36 x i8] c"cache lookup failed for relation %u\00", align 1
@__func__.index_get_partition = private unnamed_addr constant [20 x i8] c"index_get_partition\00", align 1

; Function Attrs: inlinehint nounwind uwtable
define internal ptr @GETSTRUCT(ptr noundef %0) #5 {
  %2 = alloca ptr, align 8
  store ptr %0, ptr %2, align 8
  %3 = load ptr, ptr %2, align 8
  %4 = getelementptr inbounds nuw %struct.HeapTupleData, ptr %3, i32 0, i32 3
  %5 = load ptr, ptr %4, align 8
  %6 = load ptr, ptr %2, align 8
  %7 = getelementptr inbounds nuw %struct.HeapTupleData, ptr %6, i32 0, i32 3
  %8 = load ptr, ptr %7, align 8
  %9 = getelementptr inbounds nuw %struct.HeapTupleHeaderData, ptr %8, i32 0, i32 4
  %10 = load i8, ptr %9, align 2
  %11 = zext i8 %10 to i32
  %12 = sext i32 %11 to i64
  %13 = getelementptr inbounds i8, ptr %5, i64 %12
  ret ptr %13
}

; Function Attrs: inlinehint nounwind uwtable
define internal i64 @ObjectIdGetDatum(i32 noundef %0) #5 {
  %2 = alloca i32, align 4
  store i32 %0, ptr %2, align 4
  %3 = load i32, ptr %2, align 4
  %4 = zext i32 %3 to i64
  ret i64 %4
}

; Function Attrs: nounwind uwtable
define dso_local i32 @index_get_partition(ptr noundef %0, i32 noundef %1) #0 {
  %3 = alloca i32, align 4
  %4 = alloca ptr, align 8
  %5 = alloca i32, align 4
  %6 = alloca ptr, align 8
  %7 = alloca ptr, align 8
  %8 = alloca %struct.ForEachState, align 8
  %9 = alloca i32, align 4
  %10 = alloca i32, align 4
  %11 = alloca ptr, align 8
  %12 = alloca ptr, align 8
  %13 = alloca i8, align 1
  store ptr %0, ptr %4, align 8
  store i32 %1, ptr %5, align 4
  call void @llvm.lifetime.start.p0(i64 8, ptr %6) #6
  %14 = load ptr, ptr %4, align 8
  %15 = call ptr @RelationGetIndexList(ptr noundef %14)
  store ptr %15, ptr %6, align 8
  call void @llvm.lifetime.start.p0(i64 8, ptr %7) #6
  call void @llvm.lifetime.start.p0(i64 16, ptr %8) #6
  %16 = getelementptr inbounds nuw %struct.ForEachState, ptr %8, i32 0, i32 0
  %17 = load ptr, ptr %6, align 8
  store ptr %17, ptr %16, align 8
  %18 = getelementptr inbounds nuw %struct.ForEachState, ptr %8, i32 0, i32 1
  store i32 0, ptr %18, align 8
  %19 = getelementptr i8, ptr %8, i64 12
  call void @llvm.memset.p0.i64(ptr align 4 %19, i8 0, i64 4, i1 false)
  br label %20

20:                                               ; preds = %90, %2
  %21 = getelementptr inbounds nuw %struct.ForEachState, ptr %8, i32 0, i32 0
  %22 = load ptr, ptr %21, align 8
  %23 = icmp ne ptr %22, null
  br i1 %23, label %24, label %41

24:                                               ; preds = %20
  %25 = getelementptr inbounds nuw %struct.ForEachState, ptr %8, i32 0, i32 1
  %26 = load i32, ptr %25, align 8
  %27 = getelementptr inbounds nuw %struct.ForEachState, ptr %8, i32 0, i32 0
  %28 = load ptr, ptr %27, align 8
  %29 = getelementptr inbounds nuw %struct.List, ptr %28, i32 0, i32 1
  %30 = load i32, ptr %29, align 4
  %31 = icmp slt i32 %26, %30
  br i1 %31, label %32, label %41

32:                                               ; preds = %24
  %33 = getelementptr inbounds nuw %struct.ForEachState, ptr %8, i32 0, i32 0
  %34 = load ptr, ptr %33, align 8
  %35 = getelementptr inbounds nuw %struct.List, ptr %34, i32 0, i32 3
  %36 = load ptr, ptr %35, align 8
  %37 = getelementptr inbounds nuw %struct.ForEachState, ptr %8, i32 0, i32 1
  %38 = load i32, ptr %37, align 8
  %39 = sext i32 %38 to i64
  %40 = getelementptr inbounds %union.ListCell, ptr %36, i64 %39
  store ptr %40, ptr %7, align 8
  br label %42

41:                                               ; preds = %24, %20
  store ptr null, ptr %7, align 8
  br label %42

42:                                               ; preds = %41, %32
  %43 = phi i32 [ 1, %32 ], [ 0, %41 ]
  %44 = icmp ne i32 %43, 0
  br i1 %44, label %46, label %45

45:                                               ; preds = %42
  store i32 2, ptr %9, align 4
  br label %94

46:                                               ; preds = %42
  call void @llvm.lifetime.start.p0(i64 4, ptr %10) #6
  %47 = load ptr, ptr %7, align 8
  %48 = load i32, ptr %47, align 8
  store i32 %48, ptr %10, align 4
  call void @llvm.lifetime.start.p0(i64 8, ptr %11) #6
  call void @llvm.lifetime.start.p0(i64 8, ptr %12) #6
  call void @llvm.lifetime.start.p0(i64 1, ptr %13) #6
  %49 = load i32, ptr %10, align 4
  %50 = call i64 @ObjectIdGetDatum(i32 noundef %49)
  %51 = call ptr @SearchSysCache1(i32 noundef 57, i64 noundef %50)
  store ptr %51, ptr %11, align 8
  %52 = load ptr, ptr %11, align 8
  %53 = icmp ne ptr %52, null
  br i1 %53, label %66, label %54

54:                                               ; preds = %46
  br label %55

55:                                               ; preds = %54
  br i1 true, label %56, label %58

56:                                               ; preds = %55
  %57 = call zeroext i1 @errstart_cold(i32 noundef 21, ptr noundef null) #7
  br i1 %57, label %60, label %63

58:                                               ; preds = %55
  %59 = call zeroext i1 @errstart(i32 noundef 21, ptr noundef null)
  br i1 %59, label %60, label %63

60:                                               ; preds = %58, %56
  %61 = load i32, ptr %10, align 4
  %62 = call i32 (ptr, ...) @errmsg_internal(ptr noundef @.str.3, i32 noundef %61)
  call void @errfinish(ptr noundef @.str.1, i32 noundef 190, ptr noundef @__func__.index_get_partition)
  br label %63

63:                                               ; preds = %60, %58, %56
  unreachable

64:                                               ; No predecessors!
  br label %65

65:                                               ; preds = %64
  br label %66

66:                                               ; preds = %65, %46
  %67 = load ptr, ptr %11, align 8
  %68 = call ptr @GETSTRUCT(ptr noundef %67)
  store ptr %68, ptr %12, align 8
  %69 = load ptr, ptr %12, align 8
  %70 = getelementptr inbounds nuw %struct.FormData_pg_class, ptr %69, i32 0, i32 26
  %71 = load i8, ptr %70, align 1, !range !4, !noundef !5
  %72 = trunc i8 %71 to i1
  %73 = zext i1 %72 to i8
  store i8 %73, ptr %13, align 1
  %74 = load ptr, ptr %11, align 8
  call void @ReleaseSysCache(ptr noundef %74)
  %75 = load i8, ptr %13, align 1, !range !4, !noundef !5
  %76 = trunc i8 %75 to i1
  br i1 %76, label %78, label %77

77:                                               ; preds = %66
  store i32 4, ptr %9, align 4
  br label %87

78:                                               ; preds = %66
  %79 = load i32, ptr %10, align 4
  %80 = call i32 @get_partition_parent(i32 noundef %79, i1 noundef zeroext false)
  %81 = load i32, ptr %5, align 4
  %82 = icmp eq i32 %80, %81
  br i1 %82, label %83, label %86

83:                                               ; preds = %78
  %84 = load ptr, ptr %6, align 8
  call void @list_free(ptr noundef %84)
  %85 = load i32, ptr %10, align 4
  store i32 %85, ptr %3, align 4
  store i32 1, ptr %9, align 4
  br label %87

86:                                               ; preds = %78
  store i32 0, ptr %9, align 4
  br label %87

87:                                               ; preds = %86, %83, %77
  call void @llvm.lifetime.end.p0(i64 1, ptr %13) #6
  call void @llvm.lifetime.end.p0(i64 8, ptr %12) #6
  call void @llvm.lifetime.end.p0(i64 8, ptr %11) #6
  call void @llvm.lifetime.end.p0(i64 4, ptr %10) #6
  %88 = load i32, ptr %9, align 4
  switch i32 %88, label %94 [
    i32 0, label %89
    i32 4, label %90
  ]

89:                                               ; preds = %87
  br label %90

90:                                               ; preds = %89, %87
  %91 = getelementptr inbounds nuw %struct.ForEachState, ptr %8, i32 0, i32 1
  %92 = load i32, ptr %91, align 8
  %93 = add i32 %92, 1
  store i32 %93, ptr %91, align 8
  br label %20, !llvm.loop !6

94:                                               ; preds = %87, %45
  call void @llvm.lifetime.end.p0(i64 16, ptr %8) #6
  %95 = load i32, ptr %9, align 4
  switch i32 %95, label %98 [
    i32 2, label %96
  ]

96:                                               ; preds = %94
  %97 = load ptr, ptr %6, align 8
  call void @list_free(ptr noundef %97)
  store i32 0, ptr %3, align 4
  store i32 1, ptr %9, align 4
  br label %98

98:                                               ; preds = %96, %94
  call void @llvm.lifetime.end.p0(i64 8, ptr %7) #6
  call void @llvm.lifetime.end.p0(i64 8, ptr %6) #6
  %99 = load i32, ptr %3, align 4
  ret i32 %99
}