; Function Attrs: nounwind uwtable
define dso_local i32 @index_get_partition(ptr noundef %0, i32 noundef %1) local_unnamed_addr #0 {
  %3 = tail call ptr @RelationGetIndexList(ptr noundef %0) #5
  %.not = icmp eq ptr %3, null
  br i1 %.not, label %.split43, label %.lr.ph

.lr.ph:                                           ; preds = %2
  %4 = getelementptr inbounds nuw i8, ptr %3, i64 4
  %5 = getelementptr inbounds nuw i8, ptr %3, i64 16
  %6 = load i32, ptr %4, align 4
  %7 = icmp sgt i32 %6, 0
  br i1 %7, label %.lr.ph46, label %.split43

.lr.ph46:                                         ; preds = %.lr.ph, %27
  %indvars.iv = phi i64 [ %indvars.iv.next, %27 ], [ 0, %.lr.ph ]
  %8 = load ptr, ptr %5, align 8
  %9 = getelementptr inbounds nuw %union.ListCell, ptr %8, i64 %indvars.iv
  %10 = load i32, ptr %9, align 8
  %11 = zext i32 %10 to i64
  %12 = tail call ptr @SearchSysCache1(i32 noundef 57, i64 noundef %11) #5
  %.not27 = icmp eq ptr %12, null
  br i1 %.not27, label %.split, label %15

.split:                                           ; preds = %.lr.ph46
  %13 = tail call zeroext i1 @errstart_cold(i32 noundef 21, ptr noundef null) #6
  tail call void @llvm.assume(i1 %13)
  %14 = tail call i32 (ptr, ...) @errmsg_internal(ptr noundef nonnull @.str.3, i32 noundef %10) #5
  tail call void @errfinish(ptr noundef nonnull @.str.1, i32 noundef 190, ptr noundef nonnull @__func__.index_get_partition) #5
  unreachable

15:                                               ; preds = %.lr.ph46
  %16 = getelementptr i8, ptr %12, i64 16
  %.val = load ptr, ptr %16, align 8
  %17 = getelementptr inbounds nuw i8, ptr %.val, i64 22
  %18 = load i8, ptr %17, align 2
  %19 = zext i8 %18 to i64
  %20 = getelementptr inbounds nuw i8, ptr %.val, i64 %19
  %21 = getelementptr inbounds nuw i8, ptr %20, i64 127
  %22 = load i8, ptr %21, align 1, !range !4, !noundef !5
  %23 = trunc nuw i8 %22 to i1
  tail call void @ReleaseSysCache(ptr noundef nonnull %12) #5
  br i1 %23, label %24, label %27

24:                                               ; preds = %15
  %25 = tail call i32 @get_partition_parent(i32 noundef %10, i1 noundef zeroext false)
  %26 = icmp eq i32 %25, %1
  br i1 %26, label %.split43, label %27

27:                                               ; preds = %15, %24
  %indvars.iv.next = add nuw nsw i64 %indvars.iv, 1
  %28 = load i32, ptr %4, align 4
  %29 = sext i32 %28 to i64
  %30 = icmp slt i64 %indvars.iv.next, %29
  br i1 %30, label %.lr.ph46, label %.split43

.split43:                                         ; preds = %27, %24, %2, %.lr.ph
  %.3 = phi i32 [ 0, %.lr.ph ], [ 0, %2 ], [ %10, %24 ], [ 0, %27 ]
  tail call void @list_free(ptr noundef %3) #5
  ret i32 %.3
}